; Function Attrs: mustprogress nofree norecurse nosync nounwind willreturn memory(argmem: write) uwtable
define void @bmcg2_sat_solver_setcallback(ptr noundef writeonly captures(none) initializes((16, 36)) %0, ptr noundef %1, ptr noundef %2) local_unnamed_addr #4 {
  %4 = getelementptr inbounds nuw i8, ptr %0, i64 16
  store ptr %1, ptr %4, align 8, !tbaa !21
  %5 = getelementptr inbounds nuw i8, ptr %0, i64 24
  store ptr %2, ptr %5, align 8, !tbaa !55
  %6 = getelementptr inbounds nuw i8, ptr %0, i64 32
  store i32 1000, ptr %6, align 8, !tbaa !56
  ret void
}